target datalayout = "e-m:e-p270:32:32-p271:32:32-p272:64:64-i64:64-i128:128-f80:128-n8:16:32:64-S128"
target triple = "x86_64-pc-linux-gnu"

@.str = private unnamed_addr constant [116 x i8] c"generated/home/dtcxzyw/WorkSpace/Projects/compilers/llvm-opt-benchmark/bench/libquic/libquic/boringssl/ssl/t1_lib.c\00", align 1

; Function Attrs: nounwind uwtable
define internal i32 @ext_sigalgs_parse_serverhello(ptr noundef %0, ptr noundef %1, ptr noundef %2) #0 {
  %4 = alloca i32, align 4
  %5 = alloca ptr, align 8
  %6 = alloca ptr, align 8
  %7 = alloca ptr, align 8
  store ptr %0, ptr %5, align 8, !tbaa !69
  store ptr %1, ptr %6, align 8, !tbaa !55
  store ptr %2, ptr %7, align 8, !tbaa !52
  %8 = load ptr, ptr %7, align 8, !tbaa !52
  %9 = icmp ne ptr %8, null
  br i1 %9, label %10, label %12

10:                                               ; preds = %3
  %11 = load ptr, ptr %6, align 8, !tbaa !55
  store i8 110, ptr %11, align 1, !tbaa !103
  call void @ERR_put_error(i32 noundef 16, i32 noundef 0, i32 noundef 210, ptr noundef @.str, i32 noundef 1066)
  store i32 0, ptr %4, align 4
  br label %13

12:                                               ; preds = %3
  store i32 1, ptr %4, align 4
  br label %13

13:                                               ; preds = %12, %10
  %14 = load i32, ptr %4, align 4
  ret i32 %14
}