; Function Attrs: nounwind uwtable
define internal range(i32 0, 2) i32 @ext_sigalgs_parse_serverhello(ptr readnone captures(none) %0, ptr noundef writeonly captures(none) %1, ptr noundef readnone captures(address_is_null) %2) #0 {
  %.not = icmp eq ptr %2, null
  br i1 %.not, label %5, label %4

4:                                                ; preds = %3
  store i8 110, ptr %1, align 1, !tbaa !90
  tail call void @ERR_put_error(i32 noundef 16, i32 noundef 0, i32 noundef 210, ptr noundef nonnull @.str, i32 noundef 1066) #21
  br label %5

5:                                                ; preds = %3, %4
  %.0 = phi i32 [ 0, %4 ], [ 1, %3 ]
  ret i32 %.0
}